; Function Attrs: mustprogress nounwind uwtable
define internal fastcc noundef zeroext i1 @_ZL17caller_is_deoptedv() unnamed_addr #0 {
  %1 = alloca %class.RegisterMap, align 8
  %2 = alloca %class.frame, align 8
  %3 = alloca %class.frame, align 8
  %4 = tail call align 8 ptr @llvm.threadlocal.address.p0(ptr align 8 @_ZN6Thread12_thr_currentE)
  %5 = load ptr, ptr %4, align 8
  call void @_ZN11RegisterMapC1EP10JavaThreadNS_9UpdateMapENS_13ProcessFramesENS_16WalkContinuationE(ptr noundef nonnull align 8 dereferenceable(4983) %1, ptr noundef %5, i32 noundef 0, i32 noundef 1, i32 noundef 0) #15
  %6 = getelementptr inbounds i8, ptr %5, i64 928
  call void @_ZN15JavaFrameAnchor13make_walkableEv(ptr noundef nonnull align 8 dereferenceable(24) %6) #15, !noalias !19
  call void @_ZN10JavaThread13pd_last_frameEv(ptr dead_on_unwind nonnull writable sret(%class.frame) align 8 %2, ptr noundef nonnull align 8 dereferenceable(1800) %5) #15
  call void @_ZNK5frame10sender_rawEP11RegisterMap(ptr dead_on_unwind nonnull writable sret(%class.frame) align 8 %3, ptr noundef nonnull align 8 dereferenceable(56) %2, ptr noundef nonnull %1)
  %7 = getelementptr inbounds i8, ptr %1, i64 4981
  %8 = load i8, ptr %7, align 1, !noalias !22
  %9 = trunc i8 %8 to i1
  br i1 %9, label %10, label %_ZNK5frame6senderEP11RegisterMap.exit

10:                                               ; preds = %0
  %11 = getelementptr inbounds i8, ptr %1, i64 4968
  %12 = load ptr, ptr %11, align 8, !noalias !22
  %13 = icmp eq ptr %12, null
  br i1 %13, label %_ZNK11RegisterMap7in_contEv.exit.thread.i, label %_ZNK11RegisterMap7in_contEv.exit.i

_ZNK11RegisterMap7in_contEv.exit.i:               ; preds = %10
  %14 = load ptr, ptr %12, align 8
  %.not.i = icmp eq ptr %14, null
  br i1 %.not.i, label %_ZNK11RegisterMap7in_contEv.exit.thread.i, label %_ZNK5frame6senderEP11RegisterMap.exit

_ZNK11RegisterMap7in_contEv.exit.thread.i:        ; preds = %_ZNK11RegisterMap7in_contEv.exit.i, %10
  %15 = getelementptr inbounds i8, ptr %1, i64 4960
  %16 = load ptr, ptr %15, align 8, !noalias !22
  call void @_ZN17StackWatermarkSet12on_iterationEP10JavaThreadRK5frame(ptr noundef %16, ptr noundef nonnull align 8 dereferenceable(56) %3) #15
  br label %_ZNK5frame6senderEP11RegisterMap.exit

_ZNK5frame6senderEP11RegisterMap.exit:            ; preds = %0, %_ZNK11RegisterMap7in_contEv.exit.i, %_ZNK11RegisterMap7in_contEv.exit.thread.i
  %17 = call noundef zeroext i1 @_ZNK5frame20is_deoptimized_frameEv(ptr noundef nonnull align 8 dereferenceable(56) %3) #15
  ret i1 %17
}